
night:     ファイル形式 elf32-littleriscv


セクション .text.init の逆アセンブル:

80000000 <_start>:
80000000:	10001117          	auipc	sp,0x10001
80000004:	ffc10113          	add	sp,sp,-4 # 90000ffc <_estack>
80000008:	00000517          	auipc	a0,0x0
8000000c:	13450513          	add	a0,a0,308 # 8000013c <__bss_start>
80000010:	00000597          	auipc	a1,0x0
80000014:	12c58593          	add	a1,a1,300 # 8000013c <__bss_start>
80000018:	00b57863          	bgeu	a0,a1,80000028 <clearend>

8000001c <loop>:
8000001c:	00052023          	sw	zero,0(a0)
80000020:	00450513          	add	a0,a0,4
80000024:	feb56ce3          	bltu	a0,a1,8000001c <loop>

80000028 <clearend>:
80000028:	01c0006f          	j	80000044 <main>
8000002c:	0000                	.2byte	0x0
8000002e:	0000                	.2byte	0x0
80000030:	0000                	.2byte	0x0
80000032:	0000                	.2byte	0x0
80000034:	0000                	.2byte	0x0
80000036:	0000                	.2byte	0x0
80000038:	0000                	.2byte	0x0
8000003a:	0000                	.2byte	0x0
8000003c:	0000                	.2byte	0x0
8000003e:	0000                	.2byte	0x0
80000040:	0000                	.2byte	0x0
80000042:	0000                	.2byte	0x0

セクション .text の逆アセンブル:

80000044 <main>:
80000044:	fe010113          	add	sp,sp,-32
80000048:	00112e23          	sw	ra,28(sp)
8000004c:	00812c23          	sw	s0,24(sp)
80000050:	02010413          	add	s0,sp,32
80000054:	600007b7          	lui	a5,0x60000
80000058:	00100713          	li	a4,1
8000005c:	00e78023          	sb	a4,0(a5) # 60000000 <_start-0x20000000>
80000060:	00100793          	li	a5,1
80000064:	fef42423          	sw	a5,-24(s0)
80000068:	fe042623          	sw	zero,-20(s0)
8000006c:	0380006f          	j	800000a4 <main+0x60>
80000070:	fe842783          	lw	a5,-24(s0)
80000074:	00179793          	sll	a5,a5,0x1
80000078:	fef42423          	sw	a5,-24(s0)
8000007c:	700007b7          	lui	a5,0x70000
80000080:	02078793          	add	a5,a5,32 # 70000020 <_start-0xfffffe0>
80000084:	fe842703          	lw	a4,-24(s0)
80000088:	00e7a023          	sw	a4,0(a5)
8000008c:	001e87b7          	lui	a5,0x1e8
80000090:	48078513          	add	a0,a5,1152 # 1e8480 <_start-0x7fe17b80>
80000094:	068000ef          	jal	800000fc <wait>
80000098:	fec42783          	lw	a5,-20(s0)
8000009c:	00178793          	add	a5,a5,1
800000a0:	fef42623          	sw	a5,-20(s0)
800000a4:	fec42703          	lw	a4,-20(s0)
800000a8:	00600793          	li	a5,6
800000ac:	fce7d2e3          	bge	a5,a4,80000070 <main+0x2c>
800000b0:	fe042623          	sw	zero,-20(s0)
800000b4:	0380006f          	j	800000ec <main+0xa8>
800000b8:	fe842783          	lw	a5,-24(s0)
800000bc:	4017d793          	sra	a5,a5,0x1
800000c0:	fef42423          	sw	a5,-24(s0)
800000c4:	700007b7          	lui	a5,0x70000
800000c8:	02078793          	add	a5,a5,32 # 70000020 <_start-0xfffffe0>
800000cc:	fe842703          	lw	a4,-24(s0)
800000d0:	00e7a023          	sw	a4,0(a5)
800000d4:	001e87b7          	lui	a5,0x1e8
800000d8:	48078513          	add	a0,a5,1152 # 1e8480 <_start-0x7fe17b80>
800000dc:	020000ef          	jal	800000fc <wait>
800000e0:	fec42783          	lw	a5,-20(s0)
800000e4:	00178793          	add	a5,a5,1
800000e8:	fef42623          	sw	a5,-20(s0)
800000ec:	fec42703          	lw	a4,-20(s0)
800000f0:	00600793          	li	a5,6
800000f4:	fce7d2e3          	bge	a5,a4,800000b8 <main+0x74>
800000f8:	f69ff06f          	j	80000060 <main+0x1c>

800000fc <wait>:
800000fc:	fd010113          	add	sp,sp,-48
80000100:	02812623          	sw	s0,44(sp)
80000104:	03010413          	add	s0,sp,48
80000108:	fca42e23          	sw	a0,-36(s0)
8000010c:	fe042623          	sw	zero,-20(s0)
80000110:	0100006f          	j	80000120 <wait+0x24>
80000114:	fec42783          	lw	a5,-20(s0)
80000118:	00178793          	add	a5,a5,1
8000011c:	fef42623          	sw	a5,-20(s0)
80000120:	fec42783          	lw	a5,-20(s0)
80000124:	fdc42703          	lw	a4,-36(s0)
80000128:	fee7e6e3          	bltu	a5,a4,80000114 <wait+0x18>
8000012c:	00000013          	nop
80000130:	02c12403          	lw	s0,44(sp)
80000134:	03010113          	add	sp,sp,48
80000138:	00008067          	ret
